target datalayout = "e-m:e-p270:32:32-p271:32:32-p272:64:64-i64:64-i128:128-f80:128-n8:16:32:64-S128"
target triple = "x86_64-pc-linux-gnu"

%struct.AVCodecContext = type { ptr, i32, i32, ptr, i32, i32, ptr, ptr, ptr, i64, i32, i32, ptr, i32, %struct.AVRational, %struct.AVRational, %struct.AVRational, i32, i32, i32, i32, i32, %struct.AVRational, i32, i32, i32, i32, i32, i32, i32, i32, i32, i32, i32, ptr, ptr, i32, float, float, float, float, float, float, float, float, float, i32, i32, i32, i32, i32, i32, i32, i32, i32, i32, i32, i32, ptr, ptr, ptr, i32, i32, i32, i32, i32, i32, i32, i32, i32, i32, %struct.AVChannelLayout, i32, i32, i32, i32, i32, i32, i32, i32, ptr, i32, i32, i32, float, float, i32, i32, i32, i32, i32, ptr, i64, i64, float, float, i32, i32, ptr, ptr, i32, i32, i32, i32, i32, ptr, ptr, ptr, ptr, i32, i32, [8 x i64], i32, i32, i32, i32, i32, i32, i32, ptr, ptr, i32, i32, i32, i32, i32, i32, i32, i32, i32, i32, ptr, ptr, i32, i32, ptr, ptr, ptr, ptr, i32, i32, i64, i32, i32, i64, ptr, i64, ptr, i32, ptr, i32 }
%struct.AVRational = type { i32, i32 }
%struct.AVChannelLayout = type { i32, i32, %union.anon.0, ptr }
%union.anon.0 = type { i64 }
%struct.ScreenpressoContext = type { ptr, ptr, i64 }
%struct.AVPacket = type { ptr, i64, i64, ptr, i32, i32, i32, ptr, i32, i64, i64, ptr, ptr, %struct.AVRational }
%struct.AVFrame = type { [8 x ptr], [8 x i32], ptr, i32, i32, i32, i32, i32, %struct.AVRational, i64, i64, %struct.AVRational, i32, ptr, i32, i32, [8 x ptr], ptr, i32, ptr, i32, i32, i32, i32, i32, i32, i32, i64, ptr, i32, ptr, ptr, i64, i64, i64, i64, ptr, %struct.AVChannelLayout, i64 }

@.str.3 = private unnamed_addr constant [23 x i8] c"Packet too small (%d)\0A\00", align 1
@.str.4 = private unnamed_addr constant [22 x i8] c"Compression level %d\0A\00", align 1
@.str.5 = private unnamed_addr constant [35 x i8] c"Invalid bits per pixel value (%d)\0A\00", align 1
@.str.6 = private unnamed_addr constant [19 x i8] c"Deflate error %d.\0A\00", align 1

; Function Attrs: nounwind uwtable
define internal void @sum_delta_flipped(ptr noundef %0, i32 noundef %1, ptr noundef %2, i32 noundef %3, i32 noundef %4, i32 noundef %5) #1 {
  %7 = alloca ptr, align 8
  %8 = alloca i32, align 4
  %9 = alloca ptr, align 8
  %10 = alloca i32, align 4
  %11 = alloca i32, align 4
  %12 = alloca i32, align 4
  %13 = alloca i32, align 4
  %14 = alloca ptr, align 8
  store ptr %0, ptr %7, align 8, !tbaa !49
  store i32 %1, ptr %8, align 4, !tbaa !33
  store ptr %2, ptr %9, align 8, !tbaa !49
  store i32 %3, ptr %10, align 4, !tbaa !33
  store i32 %4, ptr %11, align 4, !tbaa !33
  store i32 %5, ptr %12, align 4, !tbaa !33
  call void @llvm.lifetime.start.p0(i64 4, ptr %13) #4
  br label %15

15:                                               ; preds = %53, %6
  %16 = load i32, ptr %12, align 4, !tbaa !33
  %17 = icmp sgt i32 %16, 0
  br i1 %17, label %18, label %56

18:                                               ; preds = %15
  call void @llvm.lifetime.start.p0(i64 8, ptr %14) #4
  %19 = load ptr, ptr %9, align 8, !tbaa !49
  %20 = load i32, ptr %12, align 4, !tbaa !33
  %21 = sub nsw i32 %20, 1
  %22 = load i32, ptr %10, align 4, !tbaa !33
  %23 = mul nsw i32 %21, %22
  %24 = sext i32 %23 to i64
  %25 = getelementptr inbounds i8, ptr %19, i64 %24
  store ptr %25, ptr %14, align 8, !tbaa !49
  store i32 0, ptr %13, align 4, !tbaa !33
  br label %26

26:                                               ; preds = %45, %18
  %27 = load i32, ptr %13, align 4, !tbaa !33
  %28 = load i32, ptr %11, align 4, !tbaa !33
  %29 = icmp slt i32 %27, %28
  br i1 %29, label %30, label %48

30:                                               ; preds = %26
  %31 = load ptr, ptr %14, align 8, !tbaa !49
  %32 = load i32, ptr %13, align 4, !tbaa !33
  %33 = sext i32 %32 to i64
  %34 = getelementptr inbounds i8, ptr %31, i64 %33
  %35 = load i8, ptr %34, align 1, !tbaa !47
  %36 = zext i8 %35 to i32
  %37 = load ptr, ptr %7, align 8, !tbaa !49
  %38 = load i32, ptr %13, align 4, !tbaa !33
  %39 = sext i32 %38 to i64
  %40 = getelementptr inbounds i8, ptr %37, i64 %39
  %41 = load i8, ptr %40, align 1, !tbaa !47
  %42 = zext i8 %41 to i32
  %43 = add nsw i32 %42, %36
  %44 = trunc i32 %43 to i8
  store i8 %44, ptr %40, align 1, !tbaa !47
  br label %45

45:                                               ; preds = %30
  %46 = load i32, ptr %13, align 4, !tbaa !33
  %47 = add nsw i32 %46, 1
  store i32 %47, ptr %13, align 4, !tbaa !33
  br label %26, !llvm.loop !56

48:                                               ; preds = %26
  %49 = load i32, ptr %8, align 4, !tbaa !33
  %50 = load ptr, ptr %7, align 8, !tbaa !49
  %51 = sext i32 %49 to i64
  %52 = getelementptr inbounds i8, ptr %50, i64 %51
  store ptr %52, ptr %7, align 8, !tbaa !49
  call void @llvm.lifetime.end.p0(i64 8, ptr %14) #4
  br label %53

53:                                               ; preds = %48
  %54 = load i32, ptr %12, align 4, !tbaa !33
  %55 = add nsw i32 %54, -1
  store i32 %55, ptr %12, align 4, !tbaa !33
  br label %15, !llvm.loop !58

56:                                               ; preds = %15
  call void @llvm.lifetime.end.p0(i64 4, ptr %13) #4
  ret void
}

; Function Attrs: nounwind uwtable
define internal i32 @screenpresso_decode_frame(ptr noundef %0, ptr noundef %1, ptr noundef %2, ptr noundef %3) #1 {
  %5 = alloca i32, align 4
  %6 = alloca ptr, align 8
  %7 = alloca ptr, align 8
  %8 = alloca ptr, align 8
  %9 = alloca ptr, align 8
  %10 = alloca ptr, align 8
  %11 = alloca i64, align 8
  %12 = alloca i32, align 4
  %13 = alloca i32, align 4
  %14 = alloca i32, align 4
  %15 = alloca i32, align 4
  %16 = alloca i32, align 4
  store ptr %0, ptr %6, align 8, !tbaa !4
  store ptr %1, ptr %7, align 8, !tbaa !39
  store ptr %2, ptr %8, align 8, !tbaa !40
  store ptr %3, ptr %9, align 8, !tbaa !41
  call void @llvm.lifetime.start.p0(i64 8, ptr %10) #4
  %17 = load ptr, ptr %6, align 8, !tbaa !4
  %18 = getelementptr inbounds nuw %struct.AVCodecContext, ptr %17, i32 0, i32 6
  %19 = load ptr, ptr %18, align 8, !tbaa !9
  store ptr %19, ptr %10, align 8, !tbaa !29
  call void @llvm.lifetime.start.p0(i64 8, ptr %11) #4
  %20 = load ptr, ptr %10, align 8, !tbaa !29
  %21 = getelementptr inbounds nuw %struct.ScreenpressoContext, ptr %20, i32 0, i32 2
  %22 = load i64, ptr %21, align 8, !tbaa !37
  store i64 %22, ptr %11, align 8, !tbaa !43
  call void @llvm.lifetime.start.p0(i64 4, ptr %12) #4
  call void @llvm.lifetime.start.p0(i64 4, ptr %13) #4
  call void @llvm.lifetime.start.p0(i64 4, ptr %14) #4
  call void @llvm.lifetime.start.p0(i64 4, ptr %15) #4
  %23 = load ptr, ptr %9, align 8, !tbaa !41
  %24 = getelementptr inbounds nuw %struct.AVPacket, ptr %23, i32 0, i32 4
  %25 = load i32, ptr %24, align 8, !tbaa !44
  %26 = icmp slt i32 %25, 3
  br i1 %26, label %27, label %32

27:                                               ; preds = %4
  %28 = load ptr, ptr %6, align 8, !tbaa !4
  %29 = load ptr, ptr %9, align 8, !tbaa !41
  %30 = getelementptr inbounds nuw %struct.AVPacket, ptr %29, i32 0, i32 4
  %31 = load i32, ptr %30, align 8, !tbaa !44
  call void (ptr, i32, ptr, ...) @av_log(ptr noundef %28, i32 noundef 16, ptr noundef @.str.3, i32 noundef %31)
  store i32 -1094995529, ptr %5, align 4
  store i32 1, ptr %16, align 4
  br label %202

32:                                               ; preds = %4
  %33 = load ptr, ptr %6, align 8, !tbaa !4
  %34 = load ptr, ptr %9, align 8, !tbaa !41
  %35 = getelementptr inbounds nuw %struct.AVPacket, ptr %34, i32 0, i32 3
  %36 = load ptr, ptr %35, align 8, !tbaa !46
  %37 = getelementptr inbounds i8, ptr %36, i64 0
  %38 = load i8, ptr %37, align 1, !tbaa !47
  %39 = zext i8 %38 to i32
  %40 = ashr i32 %39, 4
  call void (ptr, i32, ptr, ...) @av_log(ptr noundef %33, i32 noundef 48, ptr noundef @.str.4, i32 noundef %40)
  %41 = load ptr, ptr %9, align 8, !tbaa !41
  %42 = getelementptr inbounds nuw %struct.AVPacket, ptr %41, i32 0, i32 3
  %43 = load ptr, ptr %42, align 8, !tbaa !46
  %44 = getelementptr inbounds i8, ptr %43, i64 0
  %45 = load i8, ptr %44, align 1, !tbaa !47
  %46 = zext i8 %45 to i32
  %47 = and i32 %46, 1
  store i32 %47, ptr %12, align 4, !tbaa !33
  %48 = load ptr, ptr %9, align 8, !tbaa !41
  %49 = getelementptr inbounds nuw %struct.AVPacket, ptr %48, i32 0, i32 3
  %50 = load ptr, ptr %49, align 8, !tbaa !46
  %51 = getelementptr inbounds i8, ptr %50, i64 1
  %52 = load i8, ptr %51, align 1, !tbaa !47
  %53 = zext i8 %52 to i32
  %54 = ashr i32 %53, 2
  %55 = and i32 %54, 3
  %56 = add nsw i32 %55, 1
  store i32 %56, ptr %13, align 4, !tbaa !33
  %57 = load i32, ptr %13, align 4, !tbaa !33
  switch i32 %57, label %67 [
    i32 2, label %58
    i32 3, label %61
    i32 4, label %64
  ]

58:                                               ; preds = %32
  %59 = load ptr, ptr %6, align 8, !tbaa !4
  %60 = getelementptr inbounds nuw %struct.AVCodecContext, ptr %59, i32 0, i32 23
  store i32 39, ptr %60, align 8, !tbaa !48
  br label %70

61:                                               ; preds = %32
  %62 = load ptr, ptr %6, align 8, !tbaa !4
  %63 = getelementptr inbounds nuw %struct.AVCodecContext, ptr %62, i32 0, i32 23
  store i32 3, ptr %63, align 8, !tbaa !48
  br label %70

64:                                               ; preds = %32
  %65 = load ptr, ptr %6, align 8, !tbaa !4
  %66 = getelementptr inbounds nuw %struct.AVCodecContext, ptr %65, i32 0, i32 23
  store i32 121, ptr %66, align 8, !tbaa !48
  br label %70

67:                                               ; preds = %32
  %68 = load ptr, ptr %6, align 8, !tbaa !4
  %69 = load i32, ptr %13, align 4, !tbaa !33
  call void (ptr, i32, ptr, ...) @av_log(ptr noundef %68, i32 noundef 16, ptr noundef @.str.5, i32 noundef %69)
  store i32 -1094995529, ptr %5, align 4
  store i32 1, ptr %16, align 4
  br label %202

70:                                               ; preds = %64, %61, %58
  %71 = load ptr, ptr %10, align 8, !tbaa !29
  %72 = getelementptr inbounds nuw %struct.ScreenpressoContext, ptr %71, i32 0, i32 1
  %73 = load ptr, ptr %72, align 8, !tbaa !38
  %74 = load ptr, ptr %9, align 8, !tbaa !41
  %75 = getelementptr inbounds nuw %struct.AVPacket, ptr %74, i32 0, i32 3
  %76 = load ptr, ptr %75, align 8, !tbaa !46
  %77 = getelementptr inbounds i8, ptr %76, i64 2
  %78 = load ptr, ptr %9, align 8, !tbaa !41
  %79 = getelementptr inbounds nuw %struct.AVPacket, ptr %78, i32 0, i32 4
  %80 = load i32, ptr %79, align 8, !tbaa !44
  %81 = sub nsw i32 %80, 2
  %82 = sext i32 %81 to i64
  %83 = call i32 @uncompress(ptr noundef %73, ptr noundef %11, ptr noundef %77, i64 noundef %82)
  store i32 %83, ptr %15, align 4, !tbaa !33
  %84 = load i32, ptr %15, align 4, !tbaa !33
  %85 = icmp ne i32 %84, 0
  br i1 %85, label %86, label %89

86:                                               ; preds = %70
  %87 = load ptr, ptr %6, align 8, !tbaa !4
  %88 = load i32, ptr %15, align 4, !tbaa !33
  call void (ptr, i32, ptr, ...) @av_log(ptr noundef %87, i32 noundef 16, ptr noundef @.str.6, i32 noundef %88)
  store i32 -1313558101, ptr %5, align 4
  store i32 1, ptr %16, align 4
  br label %202

89:                                               ; preds = %70
  %90 = load ptr, ptr %6, align 8, !tbaa !4
  %91 = load ptr, ptr %10, align 8, !tbaa !29
  %92 = getelementptr inbounds nuw %struct.ScreenpressoContext, ptr %91, i32 0, i32 0
  %93 = load ptr, ptr %92, align 8, !tbaa !34
  %94 = call i32 @ff_reget_buffer(ptr noundef %90, ptr noundef %93, i32 noundef 0)
  store i32 %94, ptr %15, align 4, !tbaa !33
  %95 = load i32, ptr %15, align 4, !tbaa !33
  %96 = icmp slt i32 %95, 0
  br i1 %96, label %97, label %99

97:                                               ; preds = %89
  %98 = load i32, ptr %15, align 4, !tbaa !33
  store i32 %98, ptr %5, align 4
  store i32 1, ptr %16, align 4
  br label %202

99:                                               ; preds = %89
  %100 = load ptr, ptr %6, align 8, !tbaa !4
  %101 = getelementptr inbounds nuw %struct.AVCodecContext, ptr %100, i32 0, i32 18
  %102 = load i32, ptr %101, align 8, !tbaa !31
  %103 = load i32, ptr %13, align 4, !tbaa !33
  %104 = mul nsw i32 %102, %103
  %105 = add nsw i32 %104, 4
  %106 = sub nsw i32 %105, 1
  %107 = and i32 %106, -4
  store i32 %107, ptr %14, align 4, !tbaa !33
  %108 = load i32, ptr %12, align 4, !tbaa !33
  %109 = icmp ne i32 %108, 0
  br i1 %109, label %110, label %149

110:                                              ; preds = %99
  %111 = load ptr, ptr %10, align 8, !tbaa !29
  %112 = getelementptr inbounds nuw %struct.ScreenpressoContext, ptr %111, i32 0, i32 0
  %113 = load ptr, ptr %112, align 8, !tbaa !34
  %114 = getelementptr inbounds nuw %struct.AVFrame, ptr %113, i32 0, i32 0
  %115 = getelementptr inbounds [8 x ptr], ptr %114, i64 0, i64 0
  %116 = load ptr, ptr %115, align 8, !tbaa !49
  %117 = load ptr, ptr %10, align 8, !tbaa !29
  %118 = getelementptr inbounds nuw %struct.ScreenpressoContext, ptr %117, i32 0, i32 0
  %119 = load ptr, ptr %118, align 8, !tbaa !34
  %120 = getelementptr inbounds nuw %struct.AVFrame, ptr %119, i32 0, i32 1
  %121 = getelementptr inbounds [8 x i32], ptr %120, i64 0, i64 0
  %122 = load i32, ptr %121, align 8, !tbaa !33
  %123 = load ptr, ptr %6, align 8, !tbaa !4
  %124 = getelementptr inbounds nuw %struct.AVCodecContext, ptr %123, i32 0, i32 19
  %125 = load i32, ptr %124, align 4, !tbaa !32
  %126 = sub nsw i32 %125, 1
  %127 = mul nsw i32 %122, %126
  %128 = sext i32 %127 to i64
  %129 = getelementptr inbounds i8, ptr %116, i64 %128
  %130 = load ptr, ptr %10, align 8, !tbaa !29
  %131 = getelementptr inbounds nuw %struct.ScreenpressoContext, ptr %130, i32 0, i32 0
  %132 = load ptr, ptr %131, align 8, !tbaa !34
  %133 = getelementptr inbounds nuw %struct.AVFrame, ptr %132, i32 0, i32 1
  %134 = getelementptr inbounds [8 x i32], ptr %133, i64 0, i64 0
  %135 = load i32, ptr %134, align 8, !tbaa !33
  %136 = mul nsw i32 -1, %135
  %137 = load ptr, ptr %10, align 8, !tbaa !29
  %138 = getelementptr inbounds nuw %struct.ScreenpressoContext, ptr %137, i32 0, i32 1
  %139 = load ptr, ptr %138, align 8, !tbaa !38
  %140 = load i32, ptr %14, align 4, !tbaa !33
  %141 = load ptr, ptr %6, align 8, !tbaa !4
  %142 = getelementptr inbounds nuw %struct.AVCodecContext, ptr %141, i32 0, i32 18
  %143 = load i32, ptr %142, align 8, !tbaa !31
  %144 = load i32, ptr %13, align 4, !tbaa !33
  %145 = mul nsw i32 %143, %144
  %146 = load ptr, ptr %6, align 8, !tbaa !4
  %147 = getelementptr inbounds nuw %struct.AVCodecContext, ptr %146, i32 0, i32 19
  %148 = load i32, ptr %147, align 4, !tbaa !32
  call void @av_image_copy_plane(ptr noundef %129, i32 noundef %136, ptr noundef %139, i32 noundef %140, i32 noundef %145, i32 noundef %148)
  br label %174

149:                                              ; preds = %99
  %150 = load ptr, ptr %10, align 8, !tbaa !29
  %151 = getelementptr inbounds nuw %struct.ScreenpressoContext, ptr %150, i32 0, i32 0
  %152 = load ptr, ptr %151, align 8, !tbaa !34
  %153 = getelementptr inbounds nuw %struct.AVFrame, ptr %152, i32 0, i32 0
  %154 = getelementptr inbounds [8 x ptr], ptr %153, i64 0, i64 0
  %155 = load ptr, ptr %154, align 8, !tbaa !49
  %156 = load ptr, ptr %10, align 8, !tbaa !29
  %157 = getelementptr inbounds nuw %struct.ScreenpressoContext, ptr %156, i32 0, i32 0
  %158 = load ptr, ptr %157, align 8, !tbaa !34
  %159 = getelementptr inbounds nuw %struct.AVFrame, ptr %158, i32 0, i32 1
  %160 = getelementptr inbounds [8 x i32], ptr %159, i64 0, i64 0
  %161 = load i32, ptr %160, align 8, !tbaa !33
  %162 = load ptr, ptr %10, align 8, !tbaa !29
  %163 = getelementptr inbounds nuw %struct.ScreenpressoContext, ptr %162, i32 0, i32 1
  %164 = load ptr, ptr %163, align 8, !tbaa !38
  %165 = load i32, ptr %14, align 4, !tbaa !33
  %166 = load ptr, ptr %6, align 8, !tbaa !4
  %167 = getelementptr inbounds nuw %struct.AVCodecContext, ptr %166, i32 0, i32 18
  %168 = load i32, ptr %167, align 8, !tbaa !31
  %169 = load i32, ptr %13, align 4, !tbaa !33
  %170 = mul nsw i32 %168, %169
  %171 = load ptr, ptr %6, align 8, !tbaa !4
  %172 = getelementptr inbounds nuw %struct.AVCodecContext, ptr %171, i32 0, i32 19
  %173 = load i32, ptr %172, align 4, !tbaa !32
  call void @sum_delta_flipped(ptr noundef %155, i32 noundef %161, ptr noundef %164, i32 noundef %165, i32 noundef %170, i32 noundef %173)
  br label %174

174:                                              ; preds = %149, %110
  %175 = load ptr, ptr %7, align 8, !tbaa !39
  %176 = load ptr, ptr %10, align 8, !tbaa !29
  %177 = getelementptr inbounds nuw %struct.ScreenpressoContext, ptr %176, i32 0, i32 0
  %178 = load ptr, ptr %177, align 8, !tbaa !34
  %179 = call i32 @av_frame_ref(ptr noundef %175, ptr noundef %178)
  store i32 %179, ptr %15, align 4, !tbaa !33
  %180 = load i32, ptr %15, align 4, !tbaa !33
  %181 = icmp slt i32 %180, 0
  br i1 %181, label %182, label %184

182:                                              ; preds = %174
  %183 = load i32, ptr %15, align 4, !tbaa !33
  store i32 %183, ptr %5, align 4
  store i32 1, ptr %16, align 4
  br label %202

184:                                              ; preds = %174
  %185 = load i32, ptr %12, align 4, !tbaa !33
  %186 = icmp ne i32 %185, 0
  br i1 %186, label %187, label %194

187:                                              ; preds = %184
  %188 = load ptr, ptr %7, align 8, !tbaa !39
  %189 = getelementptr inbounds nuw %struct.AVFrame, ptr %188, i32 0, i32 7
  store i32 1, ptr %189, align 8, !tbaa !50
  %190 = load ptr, ptr %7, align 8, !tbaa !39
  %191 = getelementptr inbounds nuw %struct.AVFrame, ptr %190, i32 0, i32 21
  %192 = load i32, ptr %191, align 4, !tbaa !55
  %193 = or i32 %192, 2
  store i32 %193, ptr %191, align 4, !tbaa !55
  br label %197

194:                                              ; preds = %184
  %195 = load ptr, ptr %7, align 8, !tbaa !39
  %196 = getelementptr inbounds nuw %struct.AVFrame, ptr %195, i32 0, i32 7
  store i32 2, ptr %196, align 8, !tbaa !50
  br label %197

197:                                              ; preds = %194, %187
  %198 = load ptr, ptr %8, align 8, !tbaa !40
  store i32 1, ptr %198, align 4, !tbaa !33
  %199 = load ptr, ptr %9, align 8, !tbaa !41
  %200 = getelementptr inbounds nuw %struct.AVPacket, ptr %199, i32 0, i32 4
  %201 = load i32, ptr %200, align 8, !tbaa !44
  store i32 %201, ptr %5, align 4
  store i32 1, ptr %16, align 4
  br label %202

202:                                              ; preds = %197, %182, %97, %86, %67, %27
  call void @llvm.lifetime.end.p0(i64 4, ptr %15) #4
  call void @llvm.lifetime.end.p0(i64 4, ptr %14) #4
  call void @llvm.lifetime.end.p0(i64 4, ptr %13) #4
  call void @llvm.lifetime.end.p0(i64 4, ptr %12) #4
  call void @llvm.lifetime.end.p0(i64 8, ptr %11) #4
  call void @llvm.lifetime.end.p0(i64 8, ptr %10) #4
  %203 = load i32, ptr %5, align 4
  ret i32 %203
}