; Function Attrs: nounwind uwtable
define internal i32 @screenpresso_decode_frame(ptr noundef %0, ptr noundef %1, ptr noundef writeonly captures(none) %2, ptr noundef readonly captures(none) %3) #1 {
  %5 = alloca i64, align 8
  %6 = getelementptr inbounds nuw i8, ptr %0, i64 32
  %7 = load ptr, ptr %6, align 8, !tbaa !4
  call void @llvm.lifetime.start.p0(i64 8, ptr nonnull %5) #4
  %8 = getelementptr inbounds nuw i8, ptr %7, i64 16
  %9 = load i64, ptr %8, align 8, !tbaa !32
  store i64 %9, ptr %5, align 8, !tbaa !34
  %10 = getelementptr inbounds nuw i8, ptr %3, i64 32
  %11 = load i32, ptr %10, align 8, !tbaa !35
  %12 = icmp slt i32 %11, 3
  br i1 %12, label %13, label %14

13:                                               ; preds = %4
  tail call void (ptr, i32, ptr, ...) @av_log(ptr noundef nonnull %0, i32 noundef 16, ptr noundef nonnull @.str.3, i32 noundef %11) #4
  br label %98

14:                                               ; preds = %4
  %15 = getelementptr inbounds nuw i8, ptr %3, i64 24
  %16 = load ptr, ptr %15, align 8, !tbaa !37
  %17 = load i8, ptr %16, align 1, !tbaa !38
  %18 = lshr i8 %17, 4
  %19 = zext nneg i8 %18 to i32
  tail call void (ptr, i32, ptr, ...) @av_log(ptr noundef nonnull %0, i32 noundef 48, ptr noundef nonnull @.str.4, i32 noundef %19) #4
  %20 = load ptr, ptr %15, align 8, !tbaa !37
  %21 = load i8, ptr %20, align 1, !tbaa !38
  %22 = and i8 %21, 1
  %23 = getelementptr inbounds nuw i8, ptr %20, i64 1
  %24 = load i8, ptr %23, align 1, !tbaa !38
  %25 = lshr i8 %24, 2
  %26 = and i8 %25, 3
  %narrow = add nuw nsw i8 %26, 1
  %27 = zext nneg i8 %narrow to i32
  switch i8 %26, label %default.unreachable [
    i8 1, label %31
    i8 2, label %28
    i8 3, label %29
    i8 0, label %30
  ]

28:                                               ; preds = %14
  br label %31

29:                                               ; preds = %14
  br label %31

default.unreachable:                              ; preds = %14
  unreachable

30:                                               ; preds = %14
  tail call void (ptr, i32, ptr, ...) @av_log(ptr noundef nonnull %0, i32 noundef 16, ptr noundef nonnull @.str.5, i32 noundef %27) #4
  br label %98

31:                                               ; preds = %14, %29, %28
  %.sink = phi i32 [ 121, %29 ], [ 3, %28 ], [ 39, %14 ]
  %32 = getelementptr inbounds nuw i8, ptr %0, i64 136
  store i32 %.sink, ptr %32, align 8, !tbaa !39
  %33 = getelementptr inbounds nuw i8, ptr %7, i64 8
  %34 = load ptr, ptr %33, align 8, !tbaa !33
  %35 = getelementptr inbounds nuw i8, ptr %20, i64 2
  %36 = load i32, ptr %10, align 8, !tbaa !35
  %37 = add nsw i32 %36, -2
  %38 = sext i32 %37 to i64
  %39 = call i32 @uncompress(ptr noundef %34, ptr noundef nonnull %5, ptr noundef nonnull %35, i64 noundef %38) #4
  %.not = icmp eq i32 %39, 0
  br i1 %.not, label %41, label %40

40:                                               ; preds = %31
  call void (ptr, i32, ptr, ...) @av_log(ptr noundef nonnull %0, i32 noundef 16, ptr noundef nonnull @.str.6, i32 noundef %39) #4
  br label %98

41:                                               ; preds = %31
  %42 = load ptr, ptr %7, align 8, !tbaa !29
  %43 = call i32 @ff_reget_buffer(ptr noundef nonnull %0, ptr noundef %42, i32 noundef 0) #4
  %44 = icmp slt i32 %43, 0
  br i1 %44, label %98, label %45

45:                                               ; preds = %41
  %46 = getelementptr inbounds nuw i8, ptr %0, i64 112
  %47 = load i32, ptr %46, align 8, !tbaa !27
  %48 = mul nsw i32 %47, %27
  %49 = add nsw i32 %48, 3
  %50 = and i32 %49, -4
  %.not58 = icmp eq i8 %22, 0
  %51 = load ptr, ptr %7, align 8, !tbaa !29
  %52 = load ptr, ptr %51, align 8, !tbaa !40
  br i1 %.not58, label %53, label %sum_delta_flipped.exit.thread

53:                                               ; preds = %45
  %54 = load ptr, ptr %33, align 8, !tbaa !33
  %55 = getelementptr inbounds nuw i8, ptr %0, i64 116
  %56 = load i32, ptr %55, align 4, !tbaa !28
  %57 = icmp sgt i32 %56, 0
  br i1 %57, label %.lr.ph19.i, label %sum_delta_flipped.exit

.lr.ph19.i:                                       ; preds = %53
  %58 = getelementptr inbounds nuw i8, ptr %51, i64 64
  %59 = load i32, ptr %58, align 8, !tbaa !41
  %60 = icmp sgt i32 %48, 0
  %61 = sext i32 %59 to i64
  br i1 %60, label %.lr.ph.us.preheader.i, label %sum_delta_flipped.exit

.lr.ph.us.preheader.i:                            ; preds = %.lr.ph19.i
  %62 = zext nneg i32 %56 to i64
  %63 = zext nneg i32 %50 to i64
  %wide.trip.count.i = zext nneg i32 %48 to i64
  br label %.lr.ph.us.i

.lr.ph.us.i:                                      ; preds = %._crit_edge.us.i, %.lr.ph.us.preheader.i
  %indvars.iv23.i = phi i64 [ %62, %.lr.ph.us.preheader.i ], [ %indvars.iv.next24.i, %._crit_edge.us.i ]
  %.017.us.i = phi ptr [ %52, %.lr.ph.us.preheader.i ], [ %72, %._crit_edge.us.i ]
  %indvars.iv.next24.i = add nsw i64 %indvars.iv23.i, -1
  %64 = mul nsw i64 %indvars.iv.next24.i, %63
  %65 = getelementptr inbounds i8, ptr %54, i64 %64
  br label %66

66:                                               ; preds = %66, %.lr.ph.us.i
  %indvars.iv.i = phi i64 [ 0, %.lr.ph.us.i ], [ %indvars.iv.next.i, %66 ]
  %67 = getelementptr inbounds nuw i8, ptr %65, i64 %indvars.iv.i
  %68 = load i8, ptr %67, align 1, !tbaa !38
  %69 = getelementptr inbounds nuw i8, ptr %.017.us.i, i64 %indvars.iv.i
  %70 = load i8, ptr %69, align 1, !tbaa !38
  %71 = add i8 %70, %68
  store i8 %71, ptr %69, align 1, !tbaa !38
  %indvars.iv.next.i = add nuw nsw i64 %indvars.iv.i, 1
  %exitcond.not.i = icmp eq i64 %indvars.iv.next.i, %wide.trip.count.i
  br i1 %exitcond.not.i, label %._crit_edge.us.i, label %66, !llvm.loop !42

._crit_edge.us.i:                                 ; preds = %66
  %72 = getelementptr inbounds i8, ptr %.017.us.i, i64 %61
  %73 = icmp samesign ugt i64 %indvars.iv23.i, 1
  br i1 %73, label %.lr.ph.us.i, label %sum_delta_flipped.exit.loopexit, !llvm.loop !44

sum_delta_flipped.exit.loopexit:                  ; preds = %._crit_edge.us.i
  %.pre = load ptr, ptr %7, align 8, !tbaa !29
  br label %sum_delta_flipped.exit

sum_delta_flipped.exit:                           ; preds = %sum_delta_flipped.exit.loopexit, %.lr.ph19.i, %53
  %74 = phi ptr [ %.pre, %sum_delta_flipped.exit.loopexit ], [ %51, %.lr.ph19.i ], [ %51, %53 ]
  %75 = call i32 @av_frame_ref(ptr noundef %1, ptr noundef %74) #4
  %76 = icmp slt i32 %75, 0
  br i1 %76, label %98, label %94

sum_delta_flipped.exit.thread:                    ; preds = %45
  %77 = getelementptr inbounds nuw i8, ptr %51, i64 64
  %78 = load i32, ptr %77, align 8, !tbaa !41
  %79 = getelementptr inbounds nuw i8, ptr %0, i64 116
  %80 = load i32, ptr %79, align 4, !tbaa !28
  %81 = add nsw i32 %80, -1
  %82 = mul nsw i32 %81, %78
  %83 = sext i32 %82 to i64
  %84 = getelementptr inbounds i8, ptr %52, i64 %83
  %85 = sub nsw i32 0, %78
  %86 = load ptr, ptr %33, align 8, !tbaa !33
  call void @av_image_copy_plane(ptr noundef %84, i32 noundef %85, ptr noundef %86, i32 noundef %50, i32 noundef %48, i32 noundef %80) #4
  %87 = load ptr, ptr %7, align 8, !tbaa !29
  %88 = call i32 @av_frame_ref(ptr noundef %1, ptr noundef %87) #4
  %89 = icmp slt i32 %88, 0
  br i1 %89, label %98, label %.thread

.thread:                                          ; preds = %sum_delta_flipped.exit.thread
  %90 = getelementptr inbounds nuw i8, ptr %1, i64 120
  store i32 1, ptr %90, align 8, !tbaa !45
  %91 = getelementptr inbounds nuw i8, ptr %1, i64 276
  %92 = load i32, ptr %91, align 4, !tbaa !50
  %93 = or i32 %92, 2
  store i32 %93, ptr %91, align 4, !tbaa !50
  br label %96

94:                                               ; preds = %sum_delta_flipped.exit
  %95 = getelementptr inbounds nuw i8, ptr %1, i64 120
  store i32 2, ptr %95, align 8, !tbaa !45
  br label %96

96:                                               ; preds = %94, %.thread
  store i32 1, ptr %2, align 4, !tbaa !41
  %97 = load i32, ptr %10, align 8, !tbaa !35
  br label %98

98:                                               ; preds = %sum_delta_flipped.exit.thread, %sum_delta_flipped.exit, %41, %96, %40, %30, %13
  %.0 = phi i32 [ -1094995529, %13 ], [ -1094995529, %30 ], [ -1313558101, %40 ], [ %97, %96 ], [ %43, %41 ], [ %75, %sum_delta_flipped.exit ], [ %88, %sum_delta_flipped.exit.thread ]
  call void @llvm.lifetime.end.p0(i64 8, ptr nonnull %5) #4
  ret i32 %.0
}